target datalayout = "e-m:e-p270:32:32-p271:32:32-p272:64:64-i64:64-i128:128-f80:128-n8:16:32:64-S128"
target triple = "x86_64-pc-linux-gnu"

%struct.Llb_Mtr_t_ = type { i32, i32, i32, i32, ptr, ptr, ptr, ptr, ptr, ptr, ptr }

; Function Attrs: nounwind uwtable
define float @Llb_ManComputeCommonAttr(ptr noundef %0, i32 noundef %1, i32 noundef %2) #0 {
  %4 = alloca ptr, align 8
  %5 = alloca i32, align 4
  %6 = alloca i32, align 4
  %7 = alloca i32, align 4
  %8 = alloca i32, align 4
  %9 = alloca i32, align 4
  store ptr %0, ptr %4, align 8, !tbaa !3
  store i32 %1, ptr %5, align 4, !tbaa !8
  store i32 %2, ptr %6, align 4, !tbaa !8
  call void @llvm.lifetime.start.p0(i64 4, ptr %7) #4
  call void @llvm.lifetime.start.p0(i64 4, ptr %8) #4
  store i32 0, ptr %8, align 4, !tbaa !8
  call void @llvm.lifetime.start.p0(i64 4, ptr %9) #4
  store i32 0, ptr %9, align 4, !tbaa !8
  store i32 0, ptr %7, align 4, !tbaa !8
  br label %10

10:                                               ; preds = %84, %3
  %11 = load i32, ptr %7, align 4, !tbaa !8
  %12 = load ptr, ptr %4, align 8, !tbaa !3
  %13 = getelementptr inbounds nuw %struct.Llb_Mtr_t_, ptr %12, i32 0, i32 2
  %14 = load i32, ptr %13, align 8, !tbaa !10
  %15 = load ptr, ptr %4, align 8, !tbaa !3
  %16 = getelementptr inbounds nuw %struct.Llb_Mtr_t_, ptr %15, i32 0, i32 1
  %17 = load i32, ptr %16, align 4, !tbaa !17
  %18 = sub nsw i32 %14, %17
  %19 = icmp slt i32 %11, %18
  br i1 %19, label %20, label %87

20:                                               ; preds = %10
  %21 = load ptr, ptr %4, align 8, !tbaa !3
  %22 = getelementptr inbounds nuw %struct.Llb_Mtr_t_, ptr %21, i32 0, i32 7
  %23 = load ptr, ptr %22, align 8, !tbaa !18
  %24 = load i32, ptr %5, align 4, !tbaa !8
  %25 = sext i32 %24 to i64
  %26 = getelementptr inbounds ptr, ptr %23, i64 %25
  %27 = load ptr, ptr %26, align 8, !tbaa !19
  %28 = load i32, ptr %7, align 4, !tbaa !8
  %29 = sext i32 %28 to i64
  %30 = getelementptr inbounds i8, ptr %27, i64 %29
  %31 = load i8, ptr %30, align 1, !tbaa !20
  %32 = sext i8 %31 to i32
  %33 = icmp eq i32 %32, 1
  br i1 %33, label %34, label %51

34:                                               ; preds = %20
  %35 = load ptr, ptr %4, align 8, !tbaa !3
  %36 = getelementptr inbounds nuw %struct.Llb_Mtr_t_, ptr %35, i32 0, i32 7
  %37 = load ptr, ptr %36, align 8, !tbaa !18
  %38 = load i32, ptr %6, align 4, !tbaa !8
  %39 = sext i32 %38 to i64
  %40 = getelementptr inbounds ptr, ptr %37, i64 %39
  %41 = load ptr, ptr %40, align 8, !tbaa !19
  %42 = load i32, ptr %7, align 4, !tbaa !8
  %43 = sext i32 %42 to i64
  %44 = getelementptr inbounds i8, ptr %41, i64 %43
  %45 = load i8, ptr %44, align 1, !tbaa !20
  %46 = sext i8 %45 to i32
  %47 = icmp eq i32 %46, 1
  br i1 %47, label %48, label %51

48:                                               ; preds = %34
  %49 = load i32, ptr %8, align 4, !tbaa !8
  %50 = add nsw i32 %49, 1
  store i32 %50, ptr %8, align 4, !tbaa !8
  br label %83

51:                                               ; preds = %34, %20
  %52 = load ptr, ptr %4, align 8, !tbaa !3
  %53 = getelementptr inbounds nuw %struct.Llb_Mtr_t_, ptr %52, i32 0, i32 7
  %54 = load ptr, ptr %53, align 8, !tbaa !18
  %55 = load i32, ptr %5, align 4, !tbaa !8
  %56 = sext i32 %55 to i64
  %57 = getelementptr inbounds ptr, ptr %54, i64 %56
  %58 = load ptr, ptr %57, align 8, !tbaa !19
  %59 = load i32, ptr %7, align 4, !tbaa !8
  %60 = sext i32 %59 to i64
  %61 = getelementptr inbounds i8, ptr %58, i64 %60
  %62 = load i8, ptr %61, align 1, !tbaa !20
  %63 = sext i8 %62 to i32
  %64 = icmp eq i32 %63, 1
  br i1 %64, label %79, label %65

65:                                               ; preds = %51
  %66 = load ptr, ptr %4, align 8, !tbaa !3
  %67 = getelementptr inbounds nuw %struct.Llb_Mtr_t_, ptr %66, i32 0, i32 7
  %68 = load ptr, ptr %67, align 8, !tbaa !18
  %69 = load i32, ptr %6, align 4, !tbaa !8
  %70 = sext i32 %69 to i64
  %71 = getelementptr inbounds ptr, ptr %68, i64 %70
  %72 = load ptr, ptr %71, align 8, !tbaa !19
  %73 = load i32, ptr %7, align 4, !tbaa !8
  %74 = sext i32 %73 to i64
  %75 = getelementptr inbounds i8, ptr %72, i64 %74
  %76 = load i8, ptr %75, align 1, !tbaa !20
  %77 = sext i8 %76 to i32
  %78 = icmp eq i32 %77, 1
  br i1 %78, label %79, label %82

79:                                               ; preds = %65, %51
  %80 = load i32, ptr %9, align 4, !tbaa !8
  %81 = add nsw i32 %80, 1
  store i32 %81, ptr %9, align 4, !tbaa !8
  br label %82

82:                                               ; preds = %79, %65
  br label %83

83:                                               ; preds = %82, %48
  br label %84

84:                                               ; preds = %83
  %85 = load i32, ptr %7, align 4, !tbaa !8
  %86 = add nsw i32 %85, 1
  store i32 %86, ptr %7, align 4, !tbaa !8
  br label %10, !llvm.loop !49

87:                                               ; preds = %10
  %88 = load i32, ptr %9, align 4, !tbaa !8
  %89 = sitofp i32 %88 to double
  %90 = fmul double -1.000000e+00, %89
  %91 = load i32, ptr %8, align 4, !tbaa !8
  %92 = load i32, ptr %9, align 4, !tbaa !8
  %93 = add nsw i32 %91, %92
  %94 = sitofp i32 %93 to double
  %95 = fdiv double %90, %94
  %96 = fptrunc double %95 to float
  call void @llvm.lifetime.end.p0(i64 4, ptr %9) #4
  call void @llvm.lifetime.end.p0(i64 4, ptr %8) #4
  call void @llvm.lifetime.end.p0(i64 4, ptr %7) #4
  ret float %96
}