; Function Attrs: nofree norecurse nosync nounwind memory(read, inaccessiblemem: none) uwtable
define float @Llb_ManComputeCommonAttr(ptr noundef readonly captures(none) %0, i32 noundef %1, i32 noundef %2) local_unnamed_addr #0 {
  %4 = getelementptr inbounds nuw i8, ptr %0, i64 8
  %5 = load i32, ptr %4, align 8, !tbaa !3
  %6 = getelementptr inbounds nuw i8, ptr %0, i64 4
  %7 = load i32, ptr %6, align 4, !tbaa !14
  %8 = sub nsw i32 %5, %7
  %9 = icmp sgt i32 %8, 0
  br i1 %9, label %.lr.ph, label %._crit_edge

.lr.ph:                                           ; preds = %3
  %10 = getelementptr inbounds nuw i8, ptr %0, i64 40
  %11 = load ptr, ptr %10, align 8, !tbaa !15
  %12 = sext i32 %1 to i64
  %13 = getelementptr inbounds ptr, ptr %11, i64 %12
  %14 = load ptr, ptr %13, align 8, !tbaa !16
  %15 = sext i32 %2 to i64
  %16 = getelementptr inbounds ptr, ptr %11, i64 %15
  %wide.trip.count = zext nneg i32 %8 to i64
  %17 = load ptr, ptr %16, align 8, !tbaa !16
  br label %18

18:                                               ; preds = %.lr.ph, %30
  %indvars.iv = phi i64 [ 0, %.lr.ph ], [ %indvars.iv.next, %30 ]
  %.025 = phi i32 [ 0, %.lr.ph ], [ %.1, %30 ]
  %.02024 = phi i32 [ 0, %.lr.ph ], [ %.121, %30 ]
  %19 = getelementptr inbounds nuw i8, ptr %14, i64 %indvars.iv
  %20 = load i8, ptr %19, align 1, !tbaa !17
  %21 = icmp eq i8 %20, 1
  %22 = getelementptr inbounds nuw i8, ptr %17, i64 %indvars.iv
  %23 = load i8, ptr %22, align 1, !tbaa !17
  %24 = icmp eq i8 %23, 1
  br i1 %21, label %25, label %28

25:                                               ; preds = %18
  br i1 %24, label %26, label %.thread

26:                                               ; preds = %25
  %27 = add nsw i32 %.02024, 1
  br label %30

28:                                               ; preds = %18
  br i1 %24, label %.thread, label %30

.thread:                                          ; preds = %25, %28
  %29 = add nsw i32 %.025, 1
  br label %30

30:                                               ; preds = %26, %.thread, %28
  %.121 = phi i32 [ %27, %26 ], [ %.02024, %.thread ], [ %.02024, %28 ]
  %.1 = phi i32 [ %.025, %26 ], [ %29, %.thread ], [ %.025, %28 ]
  %indvars.iv.next = add nuw nsw i64 %indvars.iv, 1
  %exitcond.not = icmp eq i64 %indvars.iv.next, %wide.trip.count
  br i1 %exitcond.not, label %._crit_edge, label %18, !llvm.loop !45

._crit_edge:                                      ; preds = %30, %3
  %.020.lcssa = phi i32 [ 0, %3 ], [ %.121, %30 ]
  %.0.lcssa = phi i32 [ 0, %3 ], [ %.1, %30 ]
  %31 = sitofp i32 %.0.lcssa to double
  %32 = fneg double %31
  %33 = add nsw i32 %.0.lcssa, %.020.lcssa
  %34 = sitofp i32 %33 to double
  %35 = fdiv double %32, %34
  %36 = fptrunc double %35 to float
  ret float %36
}